; Function Attrs: mustprogress uwtable
define internal void @_ZN3net12_GLOBAL__N_114OneShotVisitor18OnHandshakeMessageERKNS_22CryptoHandshakeMessageE(ptr noundef nonnull align 8 captures(none) dereferenceable(17) %0, ptr noundef nonnull align 8 dereferenceable(72) %1) unnamed_addr #0 align 2 personality ptr @__gxx_personality_v0 {
  %3 = tail call noalias noundef nonnull dereferenceable(72) ptr @_Znwm(i64 noundef 72) #19
  invoke void @_ZN3net22CryptoHandshakeMessageC1ERKS0_(ptr noundef nonnull align 8 dereferenceable(72) %3, ptr noundef nonnull align 8 dereferenceable(72) %1)
          to label %4 unwind label %7

4:                                                ; preds = %2
  %5 = getelementptr inbounds nuw i8, ptr %0, i64 8
  %6 = load ptr, ptr %5, align 8, !tbaa !64
  store ptr %3, ptr %5, align 8, !tbaa !64
  %.not.i.i = icmp eq ptr %6, null
  br i1 %.not.i.i, label %_ZNSt10unique_ptrIN3net22CryptoHandshakeMessageESt14default_deleteIS1_EE5resetEPS1_.exit, label %_ZNKSt14default_deleteIN3net22CryptoHandshakeMessageEEclEPS1_.exit.i.i

_ZNKSt14default_deleteIN3net22CryptoHandshakeMessageEEclEPS1_.exit.i.i: ; preds = %4
  tail call void @_ZN3net22CryptoHandshakeMessageD1Ev(ptr noundef nonnull align 8 dereferenceable(72) %6) #17
  tail call void @_ZdlPv(ptr noundef nonnull %6) #16
  br label %_ZNSt10unique_ptrIN3net22CryptoHandshakeMessageESt14default_deleteIS1_EE5resetEPS1_.exit

_ZNSt10unique_ptrIN3net22CryptoHandshakeMessageESt14default_deleteIS1_EE5resetEPS1_.exit: ; preds = %4, %_ZNKSt14default_deleteIN3net22CryptoHandshakeMessageEEclEPS1_.exit.i.i
  ret void

7:                                                ; preds = %2
  %8 = landingpad { ptr, i32 }
          cleanup
  tail call void @_ZdlPv(ptr noundef nonnull %3) #16
  resume { ptr, i32 } %8
}